target datalayout = "e-m:e-p270:32:32-p271:32:32-p272:64:64-i64:64-i128:128-f80:128-n8:16:32:64-S128"
target triple = "x86_64-pc-linux-gnu"

@.str = private unnamed_addr constant [1 x i8] zeroinitializer, align 1
@.str.51 = private unnamed_addr constant [8 x i8] c"WARNING\00", align 1
@.str.52 = private unnamed_addr constant [6 x i8] c"ERROR\00", align 1
@.str.53 = private unnamed_addr constant [12 x i8] c"FATAL ERROR\00", align 1

; Function Attrs: mustprogress nounwind uwtable
define dso_local noundef ptr @_ZN7doctest13failureStringENS_10assertType4EnumE(i32 noundef %0) #1 {
  %2 = alloca ptr, align 8
  %3 = alloca i32, align 4
  store i32 %0, ptr %3, align 4, !tbaa !79
  %4 = load i32, ptr %3, align 4, !tbaa !79
  %5 = and i32 %4, 1
  %6 = icmp ne i32 %5, 0
  br i1 %6, label %7, label %8

7:                                                ; preds = %1
  store ptr @.str.51, ptr %2, align 8
  br label %19

8:                                                ; preds = %1
  %9 = load i32, ptr %3, align 4, !tbaa !79
  %10 = and i32 %9, 2
  %11 = icmp ne i32 %10, 0
  br i1 %11, label %12, label %13

12:                                               ; preds = %8
  store ptr @.str.52, ptr %2, align 8
  br label %19

13:                                               ; preds = %8
  %14 = load i32, ptr %3, align 4, !tbaa !79
  %15 = and i32 %14, 4
  %16 = icmp ne i32 %15, 0
  br i1 %16, label %17, label %18

17:                                               ; preds = %13
  store ptr @.str.53, ptr %2, align 8
  br label %19

18:                                               ; preds = %13
  store ptr @.str, ptr %2, align 8
  br label %19

19:                                               ; preds = %18, %17, %12, %7
  %20 = load ptr, ptr %2, align 8
  ret ptr %20
}