; Function Attrs: mustprogress nofree norecurse nosync nounwind willreturn memory(none) uwtable
define dso_local noundef nonnull ptr @_ZN7doctest13failureStringENS_10assertType4EnumE(i32 noundef %0) local_unnamed_addr #24 {
  %2 = and i32 %0, 1
  %.not = icmp eq i32 %2, 0
  br i1 %.not, label %3, label %7

3:                                                ; preds = %1
  %4 = and i32 %0, 2
  %.not3 = icmp eq i32 %4, 0
  br i1 %.not3, label %5, label %7

5:                                                ; preds = %3
  %6 = and i32 %0, 4
  %.not4 = icmp eq i32 %6, 0
  %.str..str.53 = select i1 %.not4, ptr @.str, ptr @.str.53
  br label %7

7:                                                ; preds = %5, %3, %1
  %.0 = phi ptr [ @.str.51, %1 ], [ @.str.52, %3 ], [ %.str..str.53, %5 ]
  ret ptr %.0
}